
hMaster_SlaveSPItest.elf:     file format elf32-avr

Sections:
Idx Name          Size      VMA       LMA       File off  Algn
  0 .data         00000080  00800100  00000798  0000082c  2**0
                  CONTENTS, ALLOC, LOAD, DATA
  1 .text         00000798  00000000  00000000  00000094  2**1
                  CONTENTS, ALLOC, LOAD, READONLY, CODE
  2 .bss          00000096  00800180  00800180  000008ac  2**0
                  ALLOC
  3 .comment      00000030  00000000  00000000  000008ac  2**0
                  CONTENTS, READONLY
  4 .note.gnu.avr.deviceinfo 0000003c  00000000  00000000  000008dc  2**2
                  CONTENTS, READONLY
  5 .debug_aranges 00000130  00000000  00000000  00000918  2**0
                  CONTENTS, READONLY, DEBUGGING
  6 .debug_info   00001c94  00000000  00000000  00000a48  2**0
                  CONTENTS, READONLY, DEBUGGING
  7 .debug_abbrev 00000d6e  00000000  00000000  000026dc  2**0
                  CONTENTS, READONLY, DEBUGGING
  8 .debug_line   00000d56  00000000  00000000  0000344a  2**0
                  CONTENTS, READONLY, DEBUGGING
  9 .debug_frame  00000280  00000000  00000000  000041a0  2**2
                  CONTENTS, READONLY, DEBUGGING
 10 .debug_str    000006e8  00000000  00000000  00004420  2**0
                  CONTENTS, READONLY, DEBUGGING
 11 .debug_loc    00000904  00000000  00000000  00004b08  2**0
                  CONTENTS, READONLY, DEBUGGING
 12 .debug_ranges 000000d0  00000000  00000000  0000540c  2**0
                  CONTENTS, READONLY, DEBUGGING

Disassembly of section .text:

00000000 <__vectors>:
   0:	0c 94 46 00 	jmp	0x8c	; 0x8c <__ctors_end>
   4:	0c 94 65 00 	jmp	0xca	; 0xca <__bad_interrupt>
   8:	0c 94 65 00 	jmp	0xca	; 0xca <__bad_interrupt>
   c:	0c 94 65 00 	jmp	0xca	; 0xca <__bad_interrupt>
  10:	0c 94 65 00 	jmp	0xca	; 0xca <__bad_interrupt>
  14:	0c 94 65 00 	jmp	0xca	; 0xca <__bad_interrupt>
  18:	0c 94 65 00 	jmp	0xca	; 0xca <__bad_interrupt>
  1c:	0c 94 65 00 	jmp	0xca	; 0xca <__bad_interrupt>
  20:	0c 94 65 00 	jmp	0xca	; 0xca <__bad_interrupt>
  24:	0c 94 65 00 	jmp	0xca	; 0xca <__bad_interrupt>
  28:	0c 94 65 00 	jmp	0xca	; 0xca <__bad_interrupt>
  2c:	0c 94 65 00 	jmp	0xca	; 0xca <__bad_interrupt>
  30:	0c 94 65 00 	jmp	0xca	; 0xca <__bad_interrupt>
  34:	0c 94 65 00 	jmp	0xca	; 0xca <__bad_interrupt>
  38:	0c 94 65 00 	jmp	0xca	; 0xca <__bad_interrupt>
  3c:	0c 94 65 00 	jmp	0xca	; 0xca <__bad_interrupt>
  40:	0c 94 65 00 	jmp	0xca	; 0xca <__bad_interrupt>
  44:	0c 94 65 00 	jmp	0xca	; 0xca <__bad_interrupt>
  48:	0c 94 79 00 	jmp	0xf2	; 0xf2 <__vector_18>
  4c:	0c 94 65 00 	jmp	0xca	; 0xca <__bad_interrupt>
  50:	0c 94 65 00 	jmp	0xca	; 0xca <__bad_interrupt>
  54:	0c 94 65 00 	jmp	0xca	; 0xca <__bad_interrupt>
  58:	0c 94 65 00 	jmp	0xca	; 0xca <__bad_interrupt>
  5c:	0c 94 65 00 	jmp	0xca	; 0xca <__bad_interrupt>
  60:	0c 94 65 00 	jmp	0xca	; 0xca <__bad_interrupt>
  64:	0c 94 65 00 	jmp	0xca	; 0xca <__bad_interrupt>
  68:	0c 94 65 00 	jmp	0xca	; 0xca <__bad_interrupt>
  6c:	0c 94 65 00 	jmp	0xca	; 0xca <__bad_interrupt>
  70:	0c 94 65 00 	jmp	0xca	; 0xca <__bad_interrupt>
  74:	0c 94 65 00 	jmp	0xca	; 0xca <__bad_interrupt>
  78:	0c 94 65 00 	jmp	0xca	; 0xca <__bad_interrupt>
  7c:	0c 94 65 00 	jmp	0xca	; 0xca <__bad_interrupt>
  80:	0c 94 65 00 	jmp	0xca	; 0xca <__bad_interrupt>
  84:	0c 94 65 00 	jmp	0xca	; 0xca <__bad_interrupt>
  88:	0c 94 65 00 	jmp	0xca	; 0xca <__bad_interrupt>

0000008c <__ctors_end>:
  8c:	11 24       	eor	r1, r1
  8e:	1f be       	out	0x3f, r1	; 63
  90:	cf ef       	ldi	r28, 0xFF	; 255
  92:	d0 e1       	ldi	r29, 0x10	; 16
  94:	de bf       	out	0x3e, r29	; 62
  96:	cd bf       	out	0x3d, r28	; 61

00000098 <__do_copy_data>:
  98:	11 e0       	ldi	r17, 0x01	; 1
  9a:	a0 e0       	ldi	r26, 0x00	; 0
  9c:	b1 e0       	ldi	r27, 0x01	; 1
  9e:	e8 e9       	ldi	r30, 0x98	; 152
  a0:	f7 e0       	ldi	r31, 0x07	; 7
  a2:	00 e0       	ldi	r16, 0x00	; 0
  a4:	0b bf       	out	0x3b, r16	; 59
  a6:	02 c0       	rjmp	.+4      	; 0xac <__do_copy_data+0x14>
  a8:	07 90       	elpm	r0, Z+
  aa:	0d 92       	st	X+, r0
  ac:	a0 38       	cpi	r26, 0x80	; 128
  ae:	b1 07       	cpc	r27, r17
  b0:	d9 f7       	brne	.-10     	; 0xa8 <__do_copy_data+0x10>

000000b2 <__do_clear_bss>:
  b2:	22 e0       	ldi	r18, 0x02	; 2
  b4:	a0 e8       	ldi	r26, 0x80	; 128
  b6:	b1 e0       	ldi	r27, 0x01	; 1
  b8:	01 c0       	rjmp	.+2      	; 0xbc <.do_clear_bss_start>

000000ba <.do_clear_bss_loop>:
  ba:	1d 92       	st	X+, r1

000000bc <.do_clear_bss_start>:
  bc:	a6 31       	cpi	r26, 0x16	; 22
  be:	b2 07       	cpc	r27, r18
  c0:	e1 f7       	brne	.-8      	; 0xba <.do_clear_bss_loop>
  c2:	0e 94 c9 01 	call	0x392	; 0x392 <main>
  c6:	0c 94 ca 03 	jmp	0x794	; 0x794 <_exit>

000000ca <__bad_interrupt>:
  ca:	0c 94 00 00 	jmp	0	; 0x0 <__vectors>

000000ce <update_crc_16>:
  frame[size] = AX_FLAG;
  
}

uint16_t update_crc_16(uint8_t byte, uint16_t crc)
{
  ce:	98 e0       	ldi	r25, 0x08	; 8
  uint8_t bit, crcbit, j;
  
  for (j = 0; j < 8; j++)
  {
    bit = byte & 0x01;      
    crcbit = crc & 0x01;
  d0:	26 2f       	mov	r18, r22
  d2:	21 70       	andi	r18, 0x01	; 1
    crc = crc >> 1;      
  d4:	76 95       	lsr	r23
  d6:	67 95       	ror	r22
{
  uint8_t bit, crcbit, j;
  
  for (j = 0; j < 8; j++)
  {
    bit = byte & 0x01;      
  d8:	38 2f       	mov	r19, r24
  da:	31 70       	andi	r19, 0x01	; 1
    crcbit = crc & 0x01;
    crc = crc >> 1;      
    if (bit != crcbit)
  dc:	32 17       	cp	r19, r18
  de:	21 f0       	breq	.+8      	; 0xe8 <update_crc_16+0x1a>
      crc ^= CRC_CCIT_REV;
  e0:	28 e0       	ldi	r18, 0x08	; 8
  e2:	62 27       	eor	r22, r18
  e4:	24 e8       	ldi	r18, 0x84	; 132
  e6:	72 27       	eor	r23, r18
    byte = byte >> 1;
  e8:	86 95       	lsr	r24
  ea:	91 50       	subi	r25, 0x01	; 1

uint16_t update_crc_16(uint8_t byte, uint16_t crc)
{
  uint8_t bit, crcbit, j;
  
  for (j = 0; j < 8; j++)
  ec:	89 f7       	brne	.-30     	; 0xd0 <update_crc_16+0x2>
    if (bit != crcbit)
      crc ^= CRC_CCIT_REV;
    byte = byte >> 1;
  }
  return crc;
}
  ee:	cb 01       	movw	r24, r22
  f0:	08 95       	ret

000000f2 <__vector_18>:
}

/** @brief Interrupt on receiving a byte through UART GPS
 */
ISR(USART0_RX_vect)
{
  f2:	1f 92       	push	r1
  f4:	0f 92       	push	r0
  f6:	0f b6       	in	r0, 0x3f	; 63
  f8:	0f 92       	push	r0
  fa:	11 24       	eor	r1, r1
  fc:	0b b6       	in	r0, 0x3b	; 59
  fe:	0f 92       	push	r0
 100:	2f 93       	push	r18
 102:	8f 93       	push	r24
 104:	9f 93       	push	r25
 106:	af 93       	push	r26
 108:	bf 93       	push	r27
 10a:	ef 93       	push	r30
 10c:	ff 93       	push	r31
  
  ///Buffer the Received Byte
  last_byte = UDR0;
 10e:	8c b1       	in	r24, 0x0c	; 12
 110:	80 93 81 01 	sts	0x0181, r24	; 0x800181 <last_byte>
  
  ///Put the received byte in the last 4-bytes buffer
  buffer = buffer << 8;
 114:	80 91 82 01 	lds	r24, 0x0182	; 0x800182 <buffer>
 118:	90 91 83 01 	lds	r25, 0x0183	; 0x800183 <buffer+0x1>
 11c:	a0 91 84 01 	lds	r26, 0x0184	; 0x800184 <buffer+0x2>
 120:	b0 91 85 01 	lds	r27, 0x0185	; 0x800185 <buffer+0x3>
 124:	ba 2f       	mov	r27, r26
 126:	a9 2f       	mov	r26, r25
 128:	98 2f       	mov	r25, r24
 12a:	88 27       	eor	r24, r24
 12c:	80 93 82 01 	sts	0x0182, r24	; 0x800182 <buffer>
 130:	90 93 83 01 	sts	0x0183, r25	; 0x800183 <buffer+0x1>
 134:	a0 93 84 01 	sts	0x0184, r26	; 0x800184 <buffer+0x2>
 138:	b0 93 85 01 	sts	0x0185, r27	; 0x800185 <buffer+0x3>
  buffer &= 0xFFFFFF00;
 13c:	80 91 82 01 	lds	r24, 0x0182	; 0x800182 <buffer>
 140:	90 91 83 01 	lds	r25, 0x0183	; 0x800183 <buffer+0x1>
 144:	a0 91 84 01 	lds	r26, 0x0184	; 0x800184 <buffer+0x2>
 148:	b0 91 85 01 	lds	r27, 0x0185	; 0x800185 <buffer+0x3>
 14c:	88 27       	eor	r24, r24
 14e:	80 93 82 01 	sts	0x0182, r24	; 0x800182 <buffer>
 152:	90 93 83 01 	sts	0x0183, r25	; 0x800183 <buffer+0x1>
 156:	a0 93 84 01 	sts	0x0184, r26	; 0x800184 <buffer+0x2>
 15a:	b0 93 85 01 	sts	0x0185, r27	; 0x800185 <buffer+0x3>
  buffer |= (uint32_t) last_byte;
 15e:	20 91 81 01 	lds	r18, 0x0181	; 0x800181 <last_byte>
 162:	80 91 82 01 	lds	r24, 0x0182	; 0x800182 <buffer>
 166:	90 91 83 01 	lds	r25, 0x0183	; 0x800183 <buffer+0x1>
 16a:	a0 91 84 01 	lds	r26, 0x0184	; 0x800184 <buffer+0x2>
 16e:	b0 91 85 01 	lds	r27, 0x0185	; 0x800185 <buffer+0x3>
 172:	82 2b       	or	r24, r18
 174:	80 93 82 01 	sts	0x0182, r24	; 0x800182 <buffer>
 178:	90 93 83 01 	sts	0x0183, r25	; 0x800183 <buffer+0x1>
 17c:	a0 93 84 01 	sts	0x0184, r26	; 0x800184 <buffer+0x2>
 180:	b0 93 85 01 	sts	0x0185, r27	; 0x800185 <buffer+0x3>
  
  ///Check if the last byte was for position
  if(pos < 12)
 184:	80 91 06 01 	lds	r24, 0x0106	; 0x800106 <pos>
 188:	8c 30       	cpi	r24, 0x0C	; 12
 18a:	a0 f4       	brcc	.+40     	; 0x1b4 <__vector_18+0xc2>
  {
    
    ///* Put the data into the structure
    *((uint8_t *)&gps.x + pos) = last_byte;
 18c:	e0 91 06 01 	lds	r30, 0x0106	; 0x800106 <pos>
 190:	80 91 81 01 	lds	r24, 0x0181	; 0x800181 <last_byte>
 194:	f0 e0       	ldi	r31, 0x00	; 0
 196:	e6 57       	subi	r30, 0x76	; 118
 198:	fe 4f       	sbci	r31, 0xFE	; 254
 19a:	80 83       	st	Z, r24
    
    ///* Increment position and terminate it if full
    pos++;
 19c:	80 91 06 01 	lds	r24, 0x0106	; 0x800106 <pos>
 1a0:	8f 5f       	subi	r24, 0xFF	; 255
 1a2:	80 93 06 01 	sts	0x0106, r24	; 0x800106 <pos>
    if(pos == 12)
 1a6:	80 91 06 01 	lds	r24, 0x0106	; 0x800106 <pos>
 1aa:	8c 30       	cpi	r24, 0x0C	; 12
 1ac:	19 f4       	brne	.+6      	; 0x1b4 <__vector_18+0xc2>
      pos = 0xFF;
 1ae:	8f ef       	ldi	r24, 0xFF	; 255
 1b0:	80 93 06 01 	sts	0x0106, r24	; 0x800106 <pos>
  }
  
  ///Check if the last byte was for velocity
  if(vel < 12)
 1b4:	80 91 05 01 	lds	r24, 0x0105	; 0x800105 <vel>
 1b8:	8c 30       	cpi	r24, 0x0C	; 12
 1ba:	a0 f4       	brcc	.+40     	; 0x1e4 <__vector_18+0xf2>
  {
    *((uint8_t *)&gps.v_x + vel) = last_byte;
 1bc:	e0 91 05 01 	lds	r30, 0x0105	; 0x800105 <vel>
 1c0:	80 91 81 01 	lds	r24, 0x0181	; 0x800181 <last_byte>
 1c4:	f0 e0       	ldi	r31, 0x00	; 0
 1c6:	ea 56       	subi	r30, 0x6A	; 106
 1c8:	fe 4f       	sbci	r31, 0xFE	; 254
 1ca:	80 83       	st	Z, r24
    
    vel++;
 1cc:	80 91 05 01 	lds	r24, 0x0105	; 0x800105 <vel>
 1d0:	8f 5f       	subi	r24, 0xFF	; 255
 1d2:	80 93 05 01 	sts	0x0105, r24	; 0x800105 <vel>
    if(vel == 12)
 1d6:	80 91 05 01 	lds	r24, 0x0105	; 0x800105 <vel>
 1da:	8c 30       	cpi	r24, 0x0C	; 12
 1dc:	19 f4       	brne	.+6      	; 0x1e4 <__vector_18+0xf2>
      vel = 0xFF;
 1de:	8f ef       	ldi	r24, 0xFF	; 255
 1e0:	80 93 05 01 	sts	0x0105, r24	; 0x800105 <vel>
  }
  
  ///Check if the last byte was for PDOP
  if(dop < 4)
 1e4:	80 91 04 01 	lds	r24, 0x0104	; 0x800104 <dop>
 1e8:	84 30       	cpi	r24, 0x04	; 4
 1ea:	c0 f4       	brcc	.+48     	; 0x21c <__vector_18+0x12a>
  {
    if(dop >= 2)
 1ec:	80 91 04 01 	lds	r24, 0x0104	; 0x800104 <dop>
 1f0:	82 30       	cpi	r24, 0x02	; 2
 1f2:	40 f0       	brcs	.+16     	; 0x204 <__vector_18+0x112>
      *((uint8_t *)&pdop + (dop - 2)) = last_byte;
 1f4:	e0 91 04 01 	lds	r30, 0x0104	; 0x800104 <dop>
 1f8:	80 91 81 01 	lds	r24, 0x0181	; 0x800181 <last_byte>
 1fc:	f0 e0       	ldi	r31, 0x00	; 0
 1fe:	e2 50       	subi	r30, 0x02	; 2
 200:	ff 4f       	sbci	r31, 0xFF	; 255
 202:	80 83       	st	Z, r24
      
    dop++;
 204:	80 91 04 01 	lds	r24, 0x0104	; 0x800104 <dop>
 208:	8f 5f       	subi	r24, 0xFF	; 255
 20a:	80 93 04 01 	sts	0x0104, r24	; 0x800104 <dop>
    if(dop == 4)
 20e:	80 91 04 01 	lds	r24, 0x0104	; 0x800104 <dop>
 212:	84 30       	cpi	r24, 0x04	; 4
 214:	19 f4       	brne	.+6      	; 0x21c <__vector_18+0x12a>
      dop = 0xFF;
 216:	8f ef       	ldi	r24, 0xFF	; 255
 218:	80 93 04 01 	sts	0x0104, r24	; 0x800104 <dop>
  }
  
  ///Check if the last byte was for Geodetic position
  if(geo < 16)
 21c:	80 91 03 01 	lds	r24, 0x0103	; 0x800103 <geo>
 220:	80 31       	cpi	r24, 0x10	; 16
 222:	c0 f4       	brcc	.+48     	; 0x254 <__vector_18+0x162>
  {
    if(geo >= 4)
 224:	80 91 03 01 	lds	r24, 0x0103	; 0x800103 <geo>
 228:	84 30       	cpi	r24, 0x04	; 4
 22a:	40 f0       	brcs	.+16     	; 0x23c <__vector_18+0x14a>
    *((uint8_t *)&gps.lat + (geo - 4)) = last_byte;
 22c:	e0 91 03 01 	lds	r30, 0x0103	; 0x800103 <geo>
 230:	80 91 81 01 	lds	r24, 0x0181	; 0x800181 <last_byte>
 234:	f0 e0       	ldi	r31, 0x00	; 0
 236:	e2 56       	subi	r30, 0x62	; 98
 238:	fe 4f       	sbci	r31, 0xFE	; 254
 23a:	80 83       	st	Z, r24
    
    geo++;
 23c:	80 91 03 01 	lds	r24, 0x0103	; 0x800103 <geo>
 240:	8f 5f       	subi	r24, 0xFF	; 255
 242:	80 93 03 01 	sts	0x0103, r24	; 0x800103 <geo>
    if(geo == 16)
 246:	80 91 03 01 	lds	r24, 0x0103	; 0x800103 <geo>
 24a:	80 31       	cpi	r24, 0x10	; 16
 24c:	19 f4       	brne	.+6      	; 0x254 <__vector_18+0x162>
      geo = 0xFF;
 24e:	8f ef       	ldi	r24, 0xFF	; 255
 250:	80 93 03 01 	sts	0x0103, r24	; 0x800103 <geo>
  }
  
  ///Check if the last byte was for Time
  if(time < 7)
 254:	80 91 02 01 	lds	r24, 0x0102	; 0x800102 <time>
 258:	87 30       	cpi	r24, 0x07	; 7
 25a:	b8 f4       	brcc	.+46     	; 0x28a <__vector_18+0x198>
  {
    *((uint8_t *)&gps.hours + time) = last_byte;
 25c:	e0 91 02 01 	lds	r30, 0x0102	; 0x800102 <time>
 260:	80 91 81 01 	lds	r24, 0x0181	; 0x800181 <last_byte>
 264:	f0 e0       	ldi	r31, 0x00	; 0
 266:	e2 55       	subi	r30, 0x52	; 82
 268:	fe 4f       	sbci	r31, 0xFE	; 254
 26a:	80 83       	st	Z, r24
    
    time++;
 26c:	80 91 02 01 	lds	r24, 0x0102	; 0x800102 <time>
 270:	8f 5f       	subi	r24, 0xFF	; 255
 272:	80 93 02 01 	sts	0x0102, r24	; 0x800102 <time>
    if(time == 7)
 276:	80 91 02 01 	lds	r24, 0x0102	; 0x800102 <time>
 27a:	87 30       	cpi	r24, 0x07	; 7
 27c:	31 f4       	brne	.+12     	; 0x28a <__vector_18+0x198>
    {
      time = 0xFF;
 27e:	8f ef       	ldi	r24, 0xFF	; 255
 280:	80 93 02 01 	sts	0x0102, r24	; 0x800102 <time>
      ///* * The Entire message has been read
      message_end = 1;
 284:	81 e0       	ldi	r24, 0x01	; 1
 286:	80 93 80 01 	sts	0x0180, r24	; 0x800180 <__data_end>
    }
  }
  
  ///Check the buffer against message ID's
  ///Position
  if(buffer == 0x3F3F04AC)
 28a:	80 91 82 01 	lds	r24, 0x0182	; 0x800182 <buffer>
 28e:	90 91 83 01 	lds	r25, 0x0183	; 0x800183 <buffer+0x1>
 292:	a0 91 84 01 	lds	r26, 0x0184	; 0x800184 <buffer+0x2>
 296:	b0 91 85 01 	lds	r27, 0x0185	; 0x800185 <buffer+0x3>
 29a:	8c 3a       	cpi	r24, 0xAC	; 172
 29c:	94 40       	sbci	r25, 0x04	; 4
 29e:	af 43       	sbci	r26, 0x3F	; 63
 2a0:	bf 43       	sbci	r27, 0x3F	; 63
 2a2:	29 f4       	brne	.+10     	; 0x2ae <__vector_18+0x1bc>
  {
    message_end = 0;
 2a4:	10 92 80 01 	sts	0x0180, r1	; 0x800180 <__data_end>
    pos = 0;
 2a8:	10 92 06 01 	sts	0x0106, r1	; 0x800106 <pos>
 2ac:	3f c0       	rjmp	.+126    	; 0x32c <__vector_18+0x23a>
  }
  ///Velocity
  else if(buffer == 0x3F3F05AC)
 2ae:	80 91 82 01 	lds	r24, 0x0182	; 0x800182 <buffer>
 2b2:	90 91 83 01 	lds	r25, 0x0183	; 0x800183 <buffer+0x1>
 2b6:	a0 91 84 01 	lds	r26, 0x0184	; 0x800184 <buffer+0x2>
 2ba:	b0 91 85 01 	lds	r27, 0x0185	; 0x800185 <buffer+0x3>
 2be:	8c 3a       	cpi	r24, 0xAC	; 172
 2c0:	95 40       	sbci	r25, 0x05	; 5
 2c2:	af 43       	sbci	r26, 0x3F	; 63
 2c4:	bf 43       	sbci	r27, 0x3F	; 63
 2c6:	19 f4       	brne	.+6      	; 0x2ce <__vector_18+0x1dc>
    vel = 0;
 2c8:	10 92 05 01 	sts	0x0105, r1	; 0x800105 <vel>
 2cc:	2f c0       	rjmp	.+94     	; 0x32c <__vector_18+0x23a>
  ///DOP
  else if(buffer == 0x3F3F0BAC)
 2ce:	80 91 82 01 	lds	r24, 0x0182	; 0x800182 <buffer>
 2d2:	90 91 83 01 	lds	r25, 0x0183	; 0x800183 <buffer+0x1>
 2d6:	a0 91 84 01 	lds	r26, 0x0184	; 0x800184 <buffer+0x2>
 2da:	b0 91 85 01 	lds	r27, 0x0185	; 0x800185 <buffer+0x3>
 2de:	8c 3a       	cpi	r24, 0xAC	; 172
 2e0:	9b 40       	sbci	r25, 0x0B	; 11
 2e2:	af 43       	sbci	r26, 0x3F	; 63
 2e4:	bf 43       	sbci	r27, 0x3F	; 63
 2e6:	19 f4       	brne	.+6      	; 0x2ee <__vector_18+0x1fc>
    dop = 0;
 2e8:	10 92 04 01 	sts	0x0104, r1	; 0x800104 <dop>
 2ec:	1f c0       	rjmp	.+62     	; 0x32c <__vector_18+0x23a>
  ///Geodetic System
  else if(buffer == 0x3F3F0EAC)
 2ee:	80 91 82 01 	lds	r24, 0x0182	; 0x800182 <buffer>
 2f2:	90 91 83 01 	lds	r25, 0x0183	; 0x800183 <buffer+0x1>
 2f6:	a0 91 84 01 	lds	r26, 0x0184	; 0x800184 <buffer+0x2>
 2fa:	b0 91 85 01 	lds	r27, 0x0185	; 0x800185 <buffer+0x3>
 2fe:	8c 3a       	cpi	r24, 0xAC	; 172
 300:	9e 40       	sbci	r25, 0x0E	; 14
 302:	af 43       	sbci	r26, 0x3F	; 63
 304:	bf 43       	sbci	r27, 0x3F	; 63
 306:	19 f4       	brne	.+6      	; 0x30e <__vector_18+0x21c>
    geo = 0;
 308:	10 92 03 01 	sts	0x0103, r1	; 0x800103 <geo>
 30c:	0f c0       	rjmp	.+30     	; 0x32c <__vector_18+0x23a>
  ///Time
  else if(buffer == 0x3F3F0FAC)
 30e:	80 91 82 01 	lds	r24, 0x0182	; 0x800182 <buffer>
 312:	90 91 83 01 	lds	r25, 0x0183	; 0x800183 <buffer+0x1>
 316:	a0 91 84 01 	lds	r26, 0x0184	; 0x800184 <buffer+0x2>
 31a:	b0 91 85 01 	lds	r27, 0x0185	; 0x800185 <buffer+0x3>
 31e:	8c 3a       	cpi	r24, 0xAC	; 172
 320:	9f 40       	sbci	r25, 0x0F	; 15
 322:	af 43       	sbci	r26, 0x3F	; 63
 324:	bf 43       	sbci	r27, 0x3F	; 63
 326:	11 f4       	brne	.+4      	; 0x32c <__vector_18+0x23a>
    time = 0;
 328:	10 92 02 01 	sts	0x0102, r1	; 0x800102 <time>
  
  ///Check if PDOP < 500(factor 100), shut off the interrupt and the GPS device
  if((pdop < 500) && (pdop!=0) && message_end)
 32c:	80 91 00 01 	lds	r24, 0x0100	; 0x800100 <__data_start>
 330:	90 91 01 01 	lds	r25, 0x0101	; 0x800101 <__data_start+0x1>
 334:	84 3f       	cpi	r24, 0xF4	; 244
 336:	91 40       	sbci	r25, 0x01	; 1
 338:	f0 f4       	brcc	.+60     	; 0x376 <__vector_18+0x284>
 33a:	80 91 00 01 	lds	r24, 0x0100	; 0x800100 <__data_start>
 33e:	90 91 01 01 	lds	r25, 0x0101	; 0x800101 <__data_start+0x1>
 342:	89 2b       	or	r24, r25
 344:	c1 f0       	breq	.+48     	; 0x376 <__vector_18+0x284>
 346:	80 91 80 01 	lds	r24, 0x0180	; 0x800180 <__data_end>
 34a:	88 23       	and	r24, r24
 34c:	a1 f0       	breq	.+40     	; 0x376 <__vector_18+0x284>
  {
    GPS_done = 1;
 34e:	81 e0       	ldi	r24, 0x01	; 1
 350:	80 93 0c 02 	sts	0x020C, r24	; 0x80020c <GPS_done>
    
    ///* Switch off the interrupt
    UCSR0B &= ~(_BV(RXCIE0));
 354:	57 98       	cbi	0x0a, 7	; 10
    
    ///* Switch off the GPS device
    //power_down_peripheral(PGPS);
    
    pdop = 0xFFFF;
 356:	8f ef       	ldi	r24, 0xFF	; 255
 358:	9f ef       	ldi	r25, 0xFF	; 255
 35a:	90 93 01 01 	sts	0x0101, r25	; 0x800101 <__data_start+0x1>
 35e:	80 93 00 01 	sts	0x0100, r24	; 0x800100 <__data_start>
    message_end = 0;
 362:	10 92 80 01 	sts	0x0180, r1	; 0x800180 <__data_end>
    buffer = 0;
 366:	10 92 82 01 	sts	0x0182, r1	; 0x800182 <buffer>
 36a:	10 92 83 01 	sts	0x0183, r1	; 0x800183 <buffer+0x1>
 36e:	10 92 84 01 	sts	0x0184, r1	; 0x800184 <buffer+0x2>
 372:	10 92 85 01 	sts	0x0185, r1	; 0x800185 <buffer+0x3>
  }
}
 376:	ff 91       	pop	r31
 378:	ef 91       	pop	r30
 37a:	bf 91       	pop	r27
 37c:	af 91       	pop	r26
 37e:	9f 91       	pop	r25
 380:	8f 91       	pop	r24
 382:	2f 91       	pop	r18
 384:	0f 90       	pop	r0
 386:	0b be       	out	0x3b, r0	; 59
 388:	0f 90       	pop	r0
 38a:	0f be       	out	0x3f, r0	; 63
 38c:	0f 90       	pop	r0
 38e:	1f 90       	pop	r1
 390:	18 95       	reti

00000392 <main>:

/************************************************************/
/*				Main begins									*/
/************************************************************/
int main(void)
{
 392:	cf 93       	push	r28
 394:	df 93       	push	r29
 396:	cd b7       	in	r28, 0x3d	; 61
 398:	de b7       	in	r29, 0x3e	; 62
 39a:	c8 57       	subi	r28, 0x78	; 120
 39c:	d1 09       	sbc	r29, r1
 39e:	0f b6       	in	r0, 0x3f	; 63
 3a0:	f8 94       	cli
 3a2:	de bf       	out	0x3e, r29	; 62
 3a4:	0f be       	out	0x3f, r0	; 63
 3a6:	cd bf       	out	0x3d, r28	; 61
	char array[40];
	char array1[40];
	char array2[40];
	
	DDRA = 0xF0;
 3a8:	80 ef       	ldi	r24, 0xF0	; 240
 3aa:	8a bb       	out	0x1a, r24	; 26
	PORTA = 0xF0;
 3ac:	8b bb       	out	0x1b, r24	; 27
	#else
		//round up by default
		__ticks_dc = (uint32_t)(ceil(fabs(__tmp)));
	#endif

	__builtin_avr_delay_cycles(__ticks_dc);
 3ae:	2f ef       	ldi	r18, 0xFF	; 255
 3b0:	39 e6       	ldi	r19, 0x69	; 105
 3b2:	98 e1       	ldi	r25, 0x18	; 24
 3b4:	21 50       	subi	r18, 0x01	; 1
 3b6:	30 40       	sbci	r19, 0x00	; 0
 3b8:	90 40       	sbci	r25, 0x00	; 0
 3ba:	e1 f7       	brne	.-8      	; 0x3b4 <main+0x22>
 3bc:	00 c0       	rjmp	.+0      	; 0x3be <main+0x2c>
 3be:	00 00       	nop
	_delay_ms(1000);
	PORTA = 0x00;
 3c0:	1b ba       	out	0x1b, r1	; 27
 3c2:	2f ef       	ldi	r18, 0xFF	; 255
 3c4:	39 e6       	ldi	r19, 0x69	; 105
 3c6:	98 e1       	ldi	r25, 0x18	; 24
 3c8:	21 50       	subi	r18, 0x01	; 1
 3ca:	30 40       	sbci	r19, 0x00	; 0
 3cc:	90 40       	sbci	r25, 0x00	; 0
 3ce:	e1 f7       	brne	.-8      	; 0x3c8 <main+0x36>
 3d0:	00 c0       	rjmp	.+0      	; 0x3d2 <main+0x40>
 3d2:	00 00       	nop
	_delay_ms(1000);
	PORTA = 0xF0;
 3d4:	8b bb       	out	0x1b, r24	; 27
 3d6:	2f ef       	ldi	r18, 0xFF	; 255
 3d8:	39 e6       	ldi	r19, 0x69	; 105
 3da:	88 e1       	ldi	r24, 0x18	; 24
 3dc:	21 50       	subi	r18, 0x01	; 1
 3de:	30 40       	sbci	r19, 0x00	; 0
 3e0:	80 40       	sbci	r24, 0x00	; 0
 3e2:	e1 f7       	brne	.-8      	; 0x3dc <main+0x4a>
 3e4:	00 c0       	rjmp	.+0      	; 0x3e6 <main+0x54>
 3e6:	00 00       	nop
	_delay_ms(1000);
	PORTA = 0x00;
 3e8:	1b ba       	out	0x1b, r1	; 27
 3ea:	9f ef       	ldi	r25, 0xFF	; 255
 3ec:	29 e6       	ldi	r18, 0x69	; 105
 3ee:	38 e1       	ldi	r19, 0x18	; 24
 3f0:	91 50       	subi	r25, 0x01	; 1
 3f2:	20 40       	sbci	r18, 0x00	; 0
 3f4:	30 40       	sbci	r19, 0x00	; 0
 3f6:	e1 f7       	brne	.-8      	; 0x3f0 <main+0x5e>
 3f8:	00 c0       	rjmp	.+0      	; 0x3fa <main+0x68>
 3fa:	00 00       	nop
	_delay_ms(1000);
	
	init_UART0();
 3fc:	0e 94 a9 03 	call	0x752	; 0x752 <init_UART0>
  
	transmit_UART0('\r');
 400:	8d e0       	ldi	r24, 0x0D	; 13
 402:	0e 94 ba 03 	call	0x774	; 0x774 <transmit_UART0>
	transmit_UART0('\r');
 406:	8d e0       	ldi	r24, 0x0D	; 13
 408:	0e 94 ba 03 	call	0x774	; 0x774 <transmit_UART0>
	transmit_UART0('H');
 40c:	88 e4       	ldi	r24, 0x48	; 72
 40e:	0e 94 ba 03 	call	0x774	; 0x774 <transmit_UART0>
	transmit_UART0('e');
 412:	85 e6       	ldi	r24, 0x65	; 101
 414:	0e 94 ba 03 	call	0x774	; 0x774 <transmit_UART0>
	transmit_UART0('l');
 418:	8c e6       	ldi	r24, 0x6C	; 108
 41a:	0e 94 ba 03 	call	0x774	; 0x774 <transmit_UART0>
	transmit_UART0('l');
 41e:	8c e6       	ldi	r24, 0x6C	; 108
 420:	0e 94 ba 03 	call	0x774	; 0x774 <transmit_UART0>
	transmit_UART0('o');
 424:	8f e6       	ldi	r24, 0x6F	; 111
 426:	0e 94 ba 03 	call	0x774	; 0x774 <transmit_UART0>
	
	sprintf(array,"\t..This is IITB's Student Satellite...\r");
 42a:	88 e2       	ldi	r24, 0x28	; 40
 42c:	e7 e5       	ldi	r30, 0x57	; 87
 42e:	f1 e0       	ldi	r31, 0x01	; 1
 430:	de 01       	movw	r26, r28
 432:	11 96       	adiw	r26, 0x01	; 1
 434:	01 90       	ld	r0, Z+
 436:	0d 92       	st	X+, r0
 438:	8a 95       	dec	r24
 43a:	e1 f7       	brne	.-8      	; 0x434 <__LOCK_REGION_LENGTH__+0x34>
	transmit_string_UART0(array);
 43c:	ce 01       	movw	r24, r28
 43e:	01 96       	adiw	r24, 0x01	; 1
 440:	0e 94 be 03 	call	0x77c	; 0x77c <transmit_string_UART0>

	sprintf(array1,"\tThis is HUSSAIN's OBC-Master code...");
 444:	86 e2       	ldi	r24, 0x26	; 38
 446:	e7 e0       	ldi	r30, 0x07	; 7
 448:	f1 e0       	ldi	r31, 0x01	; 1
 44a:	de 01       	movw	r26, r28
 44c:	99 96       	adiw	r26, 0x29	; 41
 44e:	01 90       	ld	r0, Z+
 450:	0d 92       	st	X+, r0
 452:	8a 95       	dec	r24
 454:	e1 f7       	brne	.-8      	; 0x44e <__LOCK_REGION_LENGTH__+0x4e>
	sprintf(array2,"\rData send to Slave :\t");
 456:	87 e1       	ldi	r24, 0x17	; 23
 458:	ed e2       	ldi	r30, 0x2D	; 45
 45a:	f1 e0       	ldi	r31, 0x01	; 1
 45c:	de 01       	movw	r26, r28
 45e:	af 5a       	subi	r26, 0xAF	; 175
 460:	bf 4f       	sbci	r27, 0xFF	; 255
 462:	01 90       	ld	r0, Z+
 464:	0d 92       	st	X+, r0
 466:	8a 95       	dec	r24
 468:	e1 f7       	brne	.-8      	; 0x462 <__LOCK_REGION_LENGTH__+0x62>
		
/************************************************************/
	
	init_SPI();
 46a:	0e 94 7e 03 	call	0x6fc	; 0x6fc <init_SPI>
  
/************************************************************/
	while(1){
	PORTA = 0xA0;
 46e:	00 ea       	ldi	r16, 0xA0	; 160
	_delay_ms(500);
	PORTA = 0x50;
 470:	10 e5       	ldi	r17, 0x50	; 80
	
	init_SPI();
  
/************************************************************/
	while(1){
	PORTA = 0xA0;
 472:	0b bb       	out	0x1b, r16	; 27
 474:	8f ef       	ldi	r24, 0xFF	; 255
 476:	94 e3       	ldi	r25, 0x34	; 52
 478:	2c e0       	ldi	r18, 0x0C	; 12
 47a:	81 50       	subi	r24, 0x01	; 1
 47c:	90 40       	sbci	r25, 0x00	; 0
 47e:	20 40       	sbci	r18, 0x00	; 0
 480:	e1 f7       	brne	.-8      	; 0x47a <__LOCK_REGION_LENGTH__+0x7a>
 482:	00 c0       	rjmp	.+0      	; 0x484 <__LOCK_REGION_LENGTH__+0x84>
 484:	00 00       	nop
	_delay_ms(500);
	PORTA = 0x50;
 486:	1b bb       	out	0x1b, r17	; 27
 488:	3f ef       	ldi	r19, 0xFF	; 255
 48a:	84 e3       	ldi	r24, 0x34	; 52
 48c:	9c e0       	ldi	r25, 0x0C	; 12
 48e:	31 50       	subi	r19, 0x01	; 1
 490:	80 40       	sbci	r24, 0x00	; 0
 492:	90 40       	sbci	r25, 0x00	; 0
 494:	e1 f7       	brne	.-8      	; 0x48e <__LOCK_REGION_LENGTH__+0x8e>
 496:	00 c0       	rjmp	.+0      	; 0x498 <__LOCK_REGION_LENGTH__+0x98>
 498:	00 00       	nop
	_delay_ms(500);
	
	transmit_UART0('\r');
 49a:	8d e0       	ldi	r24, 0x0D	; 13
 49c:	0e 94 ba 03 	call	0x774	; 0x774 <transmit_UART0>
	transmit_UART0('\r');
 4a0:	8d e0       	ldi	r24, 0x0D	; 13
 4a2:	0e 94 ba 03 	call	0x774	; 0x774 <transmit_UART0>
	transmit_UART0('H');
 4a6:	88 e4       	ldi	r24, 0x48	; 72
 4a8:	0e 94 ba 03 	call	0x774	; 0x774 <transmit_UART0>
	transmit_UART0('i');
 4ac:	89 e6       	ldi	r24, 0x69	; 105
 4ae:	0e 94 ba 03 	call	0x774	; 0x774 <transmit_UART0>
	
	transmit_string_UART0(array1);
 4b2:	ce 01       	movw	r24, r28
 4b4:	89 96       	adiw	r24, 0x29	; 41
 4b6:	0e 94 be 03 	call	0x77c	; 0x77c <transmit_string_UART0>
	transmit_string_UART0(array2);
 4ba:	ce 01       	movw	r24, r28
 4bc:	8f 5a       	subi	r24, 0xAF	; 175
 4be:	9f 4f       	sbci	r25, 0xFF	; 255
 4c0:	0e 94 be 03 	call	0x77c	; 0x77c <transmit_string_UART0>
	
/************************************************************/
	PORTA = 0xA0;
 4c4:	0b bb       	out	0x1b, r16	; 27
 4c6:	2f ef       	ldi	r18, 0xFF	; 255
 4c8:	34 e3       	ldi	r19, 0x34	; 52
 4ca:	8c e0       	ldi	r24, 0x0C	; 12
 4cc:	21 50       	subi	r18, 0x01	; 1
 4ce:	30 40       	sbci	r19, 0x00	; 0
 4d0:	80 40       	sbci	r24, 0x00	; 0
 4d2:	e1 f7       	brne	.-8      	; 0x4cc <__LOCK_REGION_LENGTH__+0xcc>
 4d4:	00 c0       	rjmp	.+0      	; 0x4d6 <__LOCK_REGION_LENGTH__+0xd6>
 4d6:	00 00       	nop
	_delay_ms(500);
	PORTA = 0x50;
 4d8:	1b bb       	out	0x1b, r17	; 27
 4da:	9f ef       	ldi	r25, 0xFF	; 255
 4dc:	24 e3       	ldi	r18, 0x34	; 52
 4de:	3c e0       	ldi	r19, 0x0C	; 12
 4e0:	91 50       	subi	r25, 0x01	; 1
 4e2:	20 40       	sbci	r18, 0x00	; 0
 4e4:	30 40       	sbci	r19, 0x00	; 0
 4e6:	e1 f7       	brne	.-8      	; 0x4e0 <__LOCK_REGION_LENGTH__+0xe0>
 4e8:	00 c0       	rjmp	.+0      	; 0x4ea <__LOCK_REGION_LENGTH__+0xea>
 4ea:	00 00       	nop
	_delay_ms(500);
	
	///* * Sending Slave
    slave_send(BEGIN_TX_COMM, "HelloWorld", 10);
 4ec:	4a e0       	ldi	r20, 0x0A	; 10
 4ee:	64 e4       	ldi	r22, 0x44	; 68
 4f0:	71 e0       	ldi	r23, 0x01	; 1
 4f2:	8a e5       	ldi	r24, 0x5A	; 90
 4f4:	0e 94 b3 02 	call	0x566	; 0x566 <slave_send>
	transmit_string_UART0("HelloWorld");
 4f8:	84 e4       	ldi	r24, 0x44	; 68
 4fa:	91 e0       	ldi	r25, 0x01	; 1
 4fc:	0e 94 be 03 	call	0x77c	; 0x77c <transmit_string_UART0>

	PORTA = 0xA0;
 500:	0b bb       	out	0x1b, r16	; 27
 502:	8f ef       	ldi	r24, 0xFF	; 255
 504:	94 e3       	ldi	r25, 0x34	; 52
 506:	2c e0       	ldi	r18, 0x0C	; 12
 508:	81 50       	subi	r24, 0x01	; 1
 50a:	90 40       	sbci	r25, 0x00	; 0
 50c:	20 40       	sbci	r18, 0x00	; 0
 50e:	e1 f7       	brne	.-8      	; 0x508 <__LOCK_REGION_LENGTH__+0x108>
 510:	00 c0       	rjmp	.+0      	; 0x512 <__LOCK_REGION_LENGTH__+0x112>
 512:	00 00       	nop
	_delay_ms(500);
	PORTA = 0x50;
 514:	1b bb       	out	0x1b, r17	; 27
 516:	3f ef       	ldi	r19, 0xFF	; 255
 518:	84 e3       	ldi	r24, 0x34	; 52
 51a:	9c e0       	ldi	r25, 0x0C	; 12
 51c:	31 50       	subi	r19, 0x01	; 1
 51e:	80 40       	sbci	r24, 0x00	; 0
 520:	90 40       	sbci	r25, 0x00	; 0
 522:	e1 f7       	brne	.-8      	; 0x51c <__LOCK_REGION_LENGTH__+0x11c>
 524:	00 c0       	rjmp	.+0      	; 0x526 <__LOCK_REGION_LENGTH__+0x126>
 526:	00 00       	nop
	_delay_ms(500);
	PORTA = 0xA0;
 528:	0b bb       	out	0x1b, r16	; 27
 52a:	2f ef       	ldi	r18, 0xFF	; 255
 52c:	34 e3       	ldi	r19, 0x34	; 52
 52e:	8c e0       	ldi	r24, 0x0C	; 12
 530:	21 50       	subi	r18, 0x01	; 1
 532:	30 40       	sbci	r19, 0x00	; 0
 534:	80 40       	sbci	r24, 0x00	; 0
 536:	e1 f7       	brne	.-8      	; 0x530 <__LOCK_REGION_LENGTH__+0x130>
 538:	00 c0       	rjmp	.+0      	; 0x53a <__LOCK_REGION_LENGTH__+0x13a>
 53a:	00 00       	nop
	_delay_ms(500);
	PORTA = 0x50;
 53c:	1b bb       	out	0x1b, r17	; 27
 53e:	9f ef       	ldi	r25, 0xFF	; 255
 540:	24 e3       	ldi	r18, 0x34	; 52
 542:	3c e0       	ldi	r19, 0x0C	; 12
 544:	91 50       	subi	r25, 0x01	; 1
 546:	20 40       	sbci	r18, 0x00	; 0
 548:	30 40       	sbci	r19, 0x00	; 0
 54a:	e1 f7       	brne	.-8      	; 0x544 <__LOCK_REGION_LENGTH__+0x144>
 54c:	00 c0       	rjmp	.+0      	; 0x54e <__LOCK_REGION_LENGTH__+0x14e>
 54e:	00 00       	nop
	_delay_ms(500);
	
	slave_send(BEGIN_TX_COMM, "PRATHAM", 7);
 550:	47 e0       	ldi	r20, 0x07	; 7
 552:	6f e4       	ldi	r22, 0x4F	; 79
 554:	71 e0       	ldi	r23, 0x01	; 1
 556:	8a e5       	ldi	r24, 0x5A	; 90
 558:	0e 94 b3 02 	call	0x566	; 0x566 <slave_send>
	transmit_string_UART0("PRATHAM");
 55c:	8f e4       	ldi	r24, 0x4F	; 79
 55e:	91 e0       	ldi	r25, 0x01	; 1
 560:	0e 94 be 03 	call	0x77c	; 0x77c <transmit_string_UART0>
  
/************************************************************/
	}
 564:	86 cf       	rjmp	.-244    	; 0x472 <__LOCK_REGION_LENGTH__+0x72>

00000566 <slave_send>:

#include "slave_comm.h"
#include "spi.h"
#include "ax25.h"

void slave_send (uint8_t command, char* data, uint8_t size){
 566:	af 92       	push	r10
 568:	bf 92       	push	r11
 56a:	cf 92       	push	r12
 56c:	df 92       	push	r13
 56e:	ef 92       	push	r14
 570:	ff 92       	push	r15
 572:	0f 93       	push	r16
 574:	1f 93       	push	r17
 576:	cf 93       	push	r28
 578:	df 93       	push	r29
 57a:	00 d0       	rcall	.+0      	; 0x57c <slave_send+0x16>
 57c:	00 d0       	rcall	.+0      	; 0x57e <slave_send+0x18>
 57e:	1f 92       	push	r1
 580:	cd b7       	in	r28, 0x3d	; 61
 582:	de b7       	in	r29, 0x3e	; 62
 584:	8d 83       	std	Y+5, r24	; 0x05
 586:	6b 01       	movw	r12, r22
 588:	f4 2e       	mov	r15, r20

  static uint32_t seq = 0;
  uint16_t crc = 0xFFFF;
 58a:	8f ef       	ldi	r24, 0xFF	; 255
 58c:	9f ef       	ldi	r25, 0xFF	; 255
 58e:	9a 83       	std	Y+2, r25	; 0x02
 590:	89 83       	std	Y+1, r24	; 0x01
  uint8_t i, c, tsize = size;
 592:	4c 83       	std	Y+4, r20	; 0x04
  
  ///Initialize SPI
  init_SPI_trans (SLAVE);
 594:	80 e0       	ldi	r24, 0x00	; 0
 596:	0e 94 8c 03 	call	0x718	; 0x718 <init_SPI_trans>
  
  ///* Start communication
  c = START_SPI;
 59a:	87 ee       	ldi	r24, 0xE7	; 231
 59c:	8b 83       	std	Y+3, r24	; 0x03
  for (i = 0; i < N_START_SPI; i++)
    SPI_send ((char *)&c, sizeof (uint8_t));
 59e:	61 e0       	ldi	r22, 0x01	; 1
 5a0:	70 e0       	ldi	r23, 0x00	; 0
 5a2:	ce 01       	movw	r24, r28
 5a4:	03 96       	adiw	r24, 0x03	; 3
 5a6:	0e 94 9b 03 	call	0x736	; 0x736 <SPI_send>
 5aa:	61 e0       	ldi	r22, 0x01	; 1
 5ac:	70 e0       	ldi	r23, 0x00	; 0
 5ae:	ce 01       	movw	r24, r28
 5b0:	03 96       	adiw	r24, 0x03	; 3
 5b2:	0e 94 9b 03 	call	0x736	; 0x736 <SPI_send>
  
  ///* Notify the command
  SPI_send ((char *)&command,sizeof (uint8_t));
 5b6:	61 e0       	ldi	r22, 0x01	; 1
 5b8:	70 e0       	ldi	r23, 0x00	; 0
 5ba:	ce 01       	movw	r24, r28
 5bc:	05 96       	adiw	r24, 0x05	; 5
 5be:	0e 94 9b 03 	call	0x736	; 0x736 <SPI_send>
  crc = update_crc_16(command, crc);
 5c2:	69 81       	ldd	r22, Y+1	; 0x01
 5c4:	7a 81       	ldd	r23, Y+2	; 0x02
 5c6:	8d 81       	ldd	r24, Y+5	; 0x05
 5c8:	0e 94 67 00 	call	0xce	; 0xce <update_crc_16>
 5cc:	9a 83       	std	Y+2, r25	; 0x02
 5ce:	89 83       	std	Y+1, r24	; 0x01
  
  ///* Send size of data
  if((command == HM_DATA) ||(command == REAL_TIME))
 5d0:	8d 81       	ldd	r24, Y+5	; 0x05
 5d2:	88 23       	and	r24, r24
 5d4:	11 f0       	breq	.+4      	; 0x5da <slave_send+0x74>
 5d6:	85 3d       	cpi	r24, 0xD5	; 213
 5d8:	f1 f5       	brne	.+124    	; 0x656 <slave_send+0xf0>
  {
    tsize += 4;
 5da:	8c 81       	ldd	r24, Y+4	; 0x04
 5dc:	8c 5f       	subi	r24, 0xFC	; 252
 5de:	8c 83       	std	Y+4, r24	; 0x04
    SPI_send ((char *)&tsize,sizeof (uint8_t));
 5e0:	61 e0       	ldi	r22, 0x01	; 1
 5e2:	70 e0       	ldi	r23, 0x00	; 0
 5e4:	ce 01       	movw	r24, r28
 5e6:	04 96       	adiw	r24, 0x04	; 4
 5e8:	0e 94 9b 03 	call	0x736	; 0x736 <SPI_send>
    crc = update_crc_16(tsize, crc);
 5ec:	69 81       	ldd	r22, Y+1	; 0x01
 5ee:	7a 81       	ldd	r23, Y+2	; 0x02
 5f0:	8c 81       	ldd	r24, Y+4	; 0x04
 5f2:	0e 94 67 00 	call	0xce	; 0xce <update_crc_16>
 5f6:	9a 83       	std	Y+2, r25	; 0x02
 5f8:	89 83       	std	Y+1, r24	; 0x01
    ///* Send Sequence Number
    SPI_send ((char *)&seq,sizeof (uint32_t));
 5fa:	64 e0       	ldi	r22, 0x04	; 4
 5fc:	70 e0       	ldi	r23, 0x00	; 0
 5fe:	86 e8       	ldi	r24, 0x86	; 134
 600:	91 e0       	ldi	r25, 0x01	; 1
 602:	0e 94 9b 03 	call	0x736	; 0x736 <SPI_send>
 606:	06 e8       	ldi	r16, 0x86	; 134
 608:	11 e0       	ldi	r17, 0x01	; 1
 60a:	0f 2e       	mov	r0, r31
 60c:	fa e8       	ldi	r31, 0x8A	; 138
 60e:	af 2e       	mov	r10, r31
 610:	f1 e0       	ldi	r31, 0x01	; 1
 612:	bf 2e       	mov	r11, r31
 614:	f0 2d       	mov	r31, r0
    for(i = 0; i < sizeof(uint32_t); i++)
      crc = update_crc_16(((uint8_t *)&seq)[i], crc);
 616:	69 81       	ldd	r22, Y+1	; 0x01
 618:	7a 81       	ldd	r23, Y+2	; 0x02
 61a:	f8 01       	movw	r30, r16
 61c:	81 91       	ld	r24, Z+
 61e:	8f 01       	movw	r16, r30
 620:	0e 94 67 00 	call	0xce	; 0xce <update_crc_16>
 624:	9a 83       	std	Y+2, r25	; 0x02
 626:	89 83       	std	Y+1, r24	; 0x01
    tsize += 4;
    SPI_send ((char *)&tsize,sizeof (uint8_t));
    crc = update_crc_16(tsize, crc);
    ///* Send Sequence Number
    SPI_send ((char *)&seq,sizeof (uint32_t));
    for(i = 0; i < sizeof(uint32_t); i++)
 628:	0a 15       	cp	r16, r10
 62a:	1b 05       	cpc	r17, r11
 62c:	a1 f7       	brne	.-24     	; 0x616 <slave_send+0xb0>
      crc = update_crc_16(((uint8_t *)&seq)[i], crc);
    seq++;
 62e:	80 91 86 01 	lds	r24, 0x0186	; 0x800186 <seq.2141>
 632:	90 91 87 01 	lds	r25, 0x0187	; 0x800187 <seq.2141+0x1>
 636:	a0 91 88 01 	lds	r26, 0x0188	; 0x800188 <seq.2141+0x2>
 63a:	b0 91 89 01 	lds	r27, 0x0189	; 0x800189 <seq.2141+0x3>
 63e:	01 96       	adiw	r24, 0x01	; 1
 640:	a1 1d       	adc	r26, r1
 642:	b1 1d       	adc	r27, r1
 644:	80 93 86 01 	sts	0x0186, r24	; 0x800186 <seq.2141>
 648:	90 93 87 01 	sts	0x0187, r25	; 0x800187 <seq.2141+0x1>
 64c:	a0 93 88 01 	sts	0x0188, r26	; 0x800188 <seq.2141+0x2>
 650:	b0 93 89 01 	sts	0x0189, r27	; 0x800189 <seq.2141+0x3>
 654:	0d c0       	rjmp	.+26     	; 0x670 <slave_send+0x10a>
  }
  else
  {
    SPI_send ((char *)&tsize,sizeof (uint8_t));
 656:	61 e0       	ldi	r22, 0x01	; 1
 658:	70 e0       	ldi	r23, 0x00	; 0
 65a:	ce 01       	movw	r24, r28
 65c:	04 96       	adiw	r24, 0x04	; 4
 65e:	0e 94 9b 03 	call	0x736	; 0x736 <SPI_send>
    crc = update_crc_16(tsize, crc);
 662:	69 81       	ldd	r22, Y+1	; 0x01
 664:	7a 81       	ldd	r23, Y+2	; 0x02
 666:	8c 81       	ldd	r24, Y+4	; 0x04
 668:	0e 94 67 00 	call	0xce	; 0xce <update_crc_16>
 66c:	9a 83       	std	Y+2, r25	; 0x02
 66e:	89 83       	std	Y+1, r24	; 0x01
  }
    
  ///* Send data corresponding to command
  SPI_send ((char *)data,sizeof(char) * size);
 670:	6f 2d       	mov	r22, r15
 672:	70 e0       	ldi	r23, 0x00	; 0
 674:	c6 01       	movw	r24, r12
 676:	0e 94 9b 03 	call	0x736	; 0x736 <SPI_send>
  for(i = 0; i < size; i++)
 67a:	ff 20       	and	r15, r15
 67c:	a9 f0       	breq	.+42     	; 0x6a8 <slave_send+0x142>
 67e:	86 01       	movw	r16, r12
 680:	fa 94       	dec	r15
 682:	ef 2c       	mov	r14, r15
 684:	f1 2c       	mov	r15, r1
 686:	ff ef       	ldi	r31, 0xFF	; 255
 688:	ef 1a       	sub	r14, r31
 68a:	ff 0a       	sbc	r15, r31
 68c:	ec 0c       	add	r14, r12
 68e:	fd 1c       	adc	r15, r13
    crc = update_crc_16(data[i], crc);
 690:	69 81       	ldd	r22, Y+1	; 0x01
 692:	7a 81       	ldd	r23, Y+2	; 0x02
 694:	f8 01       	movw	r30, r16
 696:	81 91       	ld	r24, Z+
 698:	8f 01       	movw	r16, r30
 69a:	0e 94 67 00 	call	0xce	; 0xce <update_crc_16>
 69e:	9a 83       	std	Y+2, r25	; 0x02
 6a0:	89 83       	std	Y+1, r24	; 0x01
    crc = update_crc_16(tsize, crc);
  }
    
  ///* Send data corresponding to command
  SPI_send ((char *)data,sizeof(char) * size);
  for(i = 0; i < size; i++)
 6a2:	0e 15       	cp	r16, r14
 6a4:	1f 05       	cpc	r17, r15
 6a6:	a1 f7       	brne	.-24     	; 0x690 <slave_send+0x12a>
    crc = update_crc_16(data[i], crc);
    
  ///* Send CRC
  crc = ~crc;
 6a8:	89 81       	ldd	r24, Y+1	; 0x01
 6aa:	9a 81       	ldd	r25, Y+2	; 0x02
 6ac:	80 95       	com	r24
 6ae:	90 95       	com	r25
 6b0:	9a 83       	std	Y+2, r25	; 0x02
 6b2:	89 83       	std	Y+1, r24	; 0x01
  SPI_send ((char *)&crc, sizeof (uint16_t));
 6b4:	62 e0       	ldi	r22, 0x02	; 2
 6b6:	70 e0       	ldi	r23, 0x00	; 0
 6b8:	ce 01       	movw	r24, r28
 6ba:	01 96       	adiw	r24, 0x01	; 1
 6bc:	0e 94 9b 03 	call	0x736	; 0x736 <SPI_send>
    
  ///* End communication
  c = END_SPI;
 6c0:	8a ea       	ldi	r24, 0xAA	; 170
 6c2:	8b 83       	std	Y+3, r24	; 0x03
  for (i = 0; i < N_END_SPI; i++)
    SPI_send ((char *)&c, sizeof (uint8_t));
 6c4:	61 e0       	ldi	r22, 0x01	; 1
 6c6:	70 e0       	ldi	r23, 0x00	; 0
 6c8:	ce 01       	movw	r24, r28
 6ca:	03 96       	adiw	r24, 0x03	; 3
 6cc:	0e 94 9b 03 	call	0x736	; 0x736 <SPI_send>
 6d0:	61 e0       	ldi	r22, 0x01	; 1
 6d2:	70 e0       	ldi	r23, 0x00	; 0
 6d4:	ce 01       	movw	r24, r28
 6d6:	03 96       	adiw	r24, 0x03	; 3
 6d8:	0e 94 9b 03 	call	0x736	; 0x736 <SPI_send>
      
 6dc:	0f 90       	pop	r0
 6de:	0f 90       	pop	r0
 6e0:	0f 90       	pop	r0
 6e2:	0f 90       	pop	r0
 6e4:	0f 90       	pop	r0
 6e6:	df 91       	pop	r29
 6e8:	cf 91       	pop	r28
 6ea:	1f 91       	pop	r17
 6ec:	0f 91       	pop	r16
 6ee:	ff 90       	pop	r15
 6f0:	ef 90       	pop	r14
 6f2:	df 90       	pop	r13
 6f4:	cf 90       	pop	r12
 6f6:	bf 90       	pop	r11
 6f8:	af 90       	pop	r10
 6fa:	08 95       	ret

000006fc <init_SPI>:
}

void init_SPI(void)
{
  ///Set MOSI and SCK output, all others input
  DDRB &= 0xF0;
 6fc:	87 b3       	in	r24, 0x17	; 23
 6fe:	80 7f       	andi	r24, 0xF0	; 240
 700:	87 bb       	out	0x17, r24	; 23
  DDRB = _BV(SPICLK) | _BV(SPIDO);
 702:	86 e0       	ldi	r24, 0x06	; 6
 704:	87 bb       	out	0x17, r24	; 23
  
  DDR_CS |= _BV(SLAVE) | _BV(CC1020) | _BV(ADC_S);
 706:	87 b3       	in	r24, 0x17	; 23
 708:	81 63       	ori	r24, 0x31	; 49
 70a:	87 bb       	out	0x17, r24	; 23
  ///Switch off all devices
  PORT_CS |=_BV(SLAVE) | _BV(CC1020) | _BV(ADC_S);
 70c:	88 b3       	in	r24, 0x18	; 24
 70e:	81 63       	ori	r24, 0x31	; 49
 710:	88 bb       	out	0x18, r24	; 24
  
  ///Enable SPI, Master, set clock rate
  ///@todo Check frequency 
  SPCR = (1<<SPE)|(1<<MSTR)|(1<<SPR0)|(1<<SPR1);
 712:	83 e5       	ldi	r24, 0x53	; 83
 714:	8d b9       	out	0x0d, r24	; 13
 716:	08 95       	ret

00000718 <init_SPI_trans>:
}

void init_SPI_trans(uint8_t CS_pin){
  
  ///Pull the CS_pin on the corresponding port low
  PORT_CS |=_BV(SLAVE)|_BV(CC1020)|_BV(ADC_S);
 718:	98 b3       	in	r25, 0x18	; 24
 71a:	91 63       	ori	r25, 0x31	; 49
 71c:	98 bb       	out	0x18, r25	; 24
  cbi (PORT_CS, CS_pin);
 71e:	98 b3       	in	r25, 0x18	; 24
 720:	21 e0       	ldi	r18, 0x01	; 1
 722:	30 e0       	ldi	r19, 0x00	; 0
 724:	02 c0       	rjmp	.+4      	; 0x72a <init_SPI_trans+0x12>
 726:	22 0f       	add	r18, r18
 728:	33 1f       	adc	r19, r19
 72a:	8a 95       	dec	r24
 72c:	e2 f7       	brpl	.-8      	; 0x726 <init_SPI_trans+0xe>
 72e:	20 95       	com	r18
 730:	29 23       	and	r18, r25
 732:	28 bb       	out	0x18, r18	; 24
 734:	08 95       	ret

00000736 <SPI_send>:

void SPI_send(char* str, uint16_t size) 
{
  uint16_t i = 0;
  ///In while loop:
  while(i<size)
 736:	61 15       	cp	r22, r1
 738:	71 05       	cpc	r23, r1
 73a:	51 f0       	breq	.+20     	; 0x750 <SPI_send+0x1a>
 73c:	fc 01       	movw	r30, r24
 73e:	68 0f       	add	r22, r24
 740:	79 1f       	adc	r23, r25
  {
	 ///* Send one char
    SPDR = str[i];
 742:	91 91       	ld	r25, Z+
 744:	9f b9       	out	0x0f, r25	; 15
	 ///* Wait for SPIF flag to be set (TX complete)
    while(!(SPSR & (1<<SPIF)));
 746:	77 9b       	sbis	0x0e, 7	; 14
 748:	fe cf       	rjmp	.-4      	; 0x746 <SPI_send+0x10>

void SPI_send(char* str, uint16_t size) 
{
  uint16_t i = 0;
  ///In while loop:
  while(i<size)
 74a:	e6 17       	cp	r30, r22
 74c:	f7 07       	cpc	r31, r23
 74e:	c9 f7       	brne	.-14     	; 0x742 <SPI_send+0xc>
 750:	08 95       	ret

00000752 <init_UART0>:
    	while ( !(UCSR1A & (_BV(UDRE1))) );
    	///* Start transmission
    	UDR1 = buffer[i];
		i++;	
	}
}
 752:	1b b8       	out	0x0b, r1	; 11
 754:	1a b8       	out	0x0a, r1	; 10
 756:	e5 e9       	ldi	r30, 0x95	; 149
 758:	f0 e0       	ldi	r31, 0x00	; 0
 75a:	10 82       	st	Z, r1
 75c:	59 9a       	sbi	0x0b, 1	; 11
 75e:	8a b1       	in	r24, 0x0a	; 10
 760:	88 61       	ori	r24, 0x18	; 24
 762:	8a b9       	out	0x0a, r24	; 10
 764:	80 81       	ld	r24, Z
 766:	8e 60       	ori	r24, 0x0E	; 14
 768:	80 83       	st	Z, r24
 76a:	87 e6       	ldi	r24, 0x67	; 103
 76c:	89 b9       	out	0x09, r24	; 9
 76e:	10 92 90 00 	sts	0x0090, r1	; 0x800090 <__TEXT_REGION_LENGTH__+0x7e0090>
 772:	08 95       	ret

00000774 <transmit_UART0>:
 774:	5d 9b       	sbis	0x0b, 5	; 11
 776:	fe cf       	rjmp	.-4      	; 0x774 <transmit_UART0>
 778:	8c b9       	out	0x0c, r24	; 12
 77a:	08 95       	ret

0000077c <transmit_string_UART0>:

void transmit_string_UART0(char *buffer)
{
 77c:	fc 01       	movw	r30, r24
  	uint16_t i = 0;
  	///Loop through the data
  	while(buffer[i] != '\0')
 77e:	90 81       	ld	r25, Z
 780:	99 23       	and	r25, r25
 782:	39 f0       	breq	.+14     	; 0x792 <transmit_string_UART0+0x16>
 784:	31 96       	adiw	r30, 0x01	; 1
  	{
    	///* Wait for empty transmit buffer 
    	while ( !(UCSR0A & (_BV(UDRE0))) );
 786:	5d 9b       	sbis	0x0b, 5	; 11
 788:	fe cf       	rjmp	.-4      	; 0x786 <transmit_string_UART0+0xa>
    	///* Start transmission
    	UDR0 = buffer[i];
 78a:	9c b9       	out	0x0c, r25	; 12

void transmit_string_UART0(char *buffer)
{
  	uint16_t i = 0;
  	///Loop through the data
  	while(buffer[i] != '\0')
 78c:	91 91       	ld	r25, Z+
 78e:	91 11       	cpse	r25, r1
 790:	fa cf       	rjmp	.-12     	; 0x786 <transmit_string_UART0+0xa>
 792:	08 95       	ret

00000794 <_exit>:
 794:	f8 94       	cli

00000796 <__stop_program>:
 796:	ff cf       	rjmp	.-2      	; 0x796 <__stop_program>
